target datalayout = "e-m:e-p270:32:32-p271:32:32-p272:64:64-i64:64-f80:128-n8:16:32:64-S128"
target triple = "x86_64-pc-linux-gnu"

@.str = private unnamed_addr constant [5 x i8] c"%d%d\00", align 1
@len1 = common dso_local global i32 0, align 4
@len2 = common dso_local global i32 0, align 4
@sz1 = common dso_local global i32* null, align 8
@sz2 = common dso_local global i32* null, align 8
@.str.1 = private unnamed_addr constant [3 x i8] c"%d\00", align 1
@.str.2 = private unnamed_addr constant [4 x i8] c" %d\00", align 1
@.str.3 = private unnamed_addr constant [2 x i8] c"\0A\00", align 1

; Function Attrs: noinline nounwind uwtable
define dso_local void @read() #0 {
  %1 = alloca i32, align 4
  %2 = call i32 (i8*, ...) @__isoc99_scanf(i8* getelementptr inbounds ([5 x i8], [5 x i8]* @.str, i64 0, i64 0), i32* @len1, i32* @len2)
  %3 = load i32, i32* @len1, align 4
  %4 = load i32, i32* @len2, align 4
  %5 = add nsw i32 %3, %4
  %6 = mul nsw i32 100, %5
  %7 = sext i32 %6 to i64
  %8 = call noalias i8* @malloc(i64 %7) #3
  %9 = bitcast i8* %8 to i32*
  store i32* %9, i32** @sz1, align 8
  %10 = load i32, i32* @len2, align 4
  %11 = mul nsw i32 100, %10
  %12 = sext i32 %11 to i64
  %13 = call noalias i8* @malloc(i64 %12) #3
  %14 = bitcast i8* %13 to i32*
  store i32* %14, i32** @sz2, align 8
  store i32 0, i32* %1, align 4
  br label %15

15:                                               ; preds = %25, %0
  %16 = load i32, i32* %1, align 4
  %17 = load i32, i32* @len1, align 4
  %18 = icmp slt i32 %16, %17
  br i1 %18, label %19, label %28

19:                                               ; preds = %15
  %20 = load i32*, i32** @sz1, align 8
  %21 = load i32, i32* %1, align 4
  %22 = sext i32 %21 to i64
  %23 = getelementptr inbounds i32, i32* %20, i64 %22
  %24 = call i32 (i8*, ...) @__isoc99_scanf(i8* getelementptr inbounds ([3 x i8], [3 x i8]* @.str.1, i64 0, i64 0), i32* %23)
  br label %25

25:                                               ; preds = %19
  %26 = load i32, i32* %1, align 4
  %27 = add nsw i32 %26, 1
  store i32 %27, i32* %1, align 4
  br label %15

28:                                               ; preds = %15
  store i32 0, i32* %1, align 4
  br label %29

29:                                               ; preds = %39, %28
  %30 = load i32, i32* %1, align 4
  %31 = load i32, i32* @len2, align 4
  %32 = icmp slt i32 %30, %31
  br i1 %32, label %33, label %42

33:                                               ; preds = %29
  %34 = load i32*, i32** @sz2, align 8
  %35 = load i32, i32* %1, align 4
  %36 = sext i32 %35 to i64
  %37 = getelementptr inbounds i32, i32* %34, i64 %36
  %38 = call i32 (i8*, ...) @__isoc99_scanf(i8* getelementptr inbounds ([3 x i8], [3 x i8]* @.str.1, i64 0, i64 0), i32* %37)
  br label %39

39:                                               ; preds = %33
  %40 = load i32, i32* %1, align 4
  %41 = add nsw i32 %40, 1
  store i32 %41, i32* %1, align 4
  br label %29

42:                                               ; preds = %29
  ret void
}

; Function Attrs: noinline nounwind uwtable
define dso_local void @sort() #0 {
  %1 = alloca i32, align 4
  %2 = alloca i32, align 4
  %3 = alloca i32, align 4
  store i32 0, i32* %1, align 4
  br label %4

4:                                                ; preds = %52, %0
  %5 = load i32, i32* %1, align 4
  %6 = load i32, i32* @len1, align 4
  %7 = icmp slt i32 %5, %6
  br i1 %7, label %8, label %55

8:                                                ; preds = %4
  %9 = load i32, i32* %1, align 4
  %10 = add nsw i32 %9, 1
  store i32 %10, i32* %2, align 4
  br label %11

11:                                               ; preds = %48, %8
  %12 = load i32, i32* %2, align 4
  %13 = load i32, i32* @len1, align 4
  %14 = icmp slt i32 %12, %13
  br i1 %14, label %15, label %51

15:                                               ; preds = %11
  %16 = load i32*, i32** @sz1, align 8
  %17 = load i32, i32* %1, align 4
  %18 = sext i32 %17 to i64
  %19 = getelementptr inbounds i32, i32* %16, i64 %18
  %20 = load i32, i32* %19, align 4
  %21 = load i32*, i32** @sz1, align 8
  %22 = load i32, i32* %2, align 4
  %23 = sext i32 %22 to i64
  %24 = getelementptr inbounds i32, i32* %21, i64 %23
  %25 = load i32, i32* %24, align 4
  %26 = icmp sgt i32 %20, %25
  br i1 %26, label %27, label %47

27:                                               ; preds = %15
  %28 = load i32*, i32** @sz1, align 8
  %29 = load i32, i32* %1, align 4
  %30 = sext i32 %29 to i64
  %31 = getelementptr inbounds i32, i32* %28, i64 %30
  %32 = load i32, i32* %31, align 4
  store i32 %32, i32* %3, align 4
  %33 = load i32*, i32** @sz1, align 8
  %34 = load i32, i32* %2, align 4
  %35 = sext i32 %34 to i64
  %36 = getelementptr inbounds i32, i32* %33, i64 %35
  %37 = load i32, i32* %36, align 4
  %38 = load i32*, i32** @sz1, align 8
  %39 = load i32, i32* %1, align 4
  %40 = sext i32 %39 to i64
  %41 = getelementptr inbounds i32, i32* %38, i64 %40
  store i32 %37, i32* %41, align 4
  %42 = load i32, i32* %3, align 4
  %43 = load i32*, i32** @sz1, align 8
  %44 = load i32, i32* %2, align 4
  %45 = sext i32 %44 to i64
  %46 = getelementptr inbounds i32, i32* %43, i64 %45
  store i32 %42, i32* %46, align 4
  br label %47

47:                                               ; preds = %27, %15
  br label %48

48:                                               ; preds = %47
  %49 = load i32, i32* %2, align 4
  %50 = add nsw i32 %49, 1
  store i32 %50, i32* %2, align 4
  br label %11

51:                                               ; preds = %11
  br label %52

52:                                               ; preds = %51
  %53 = load i32, i32* %1, align 4
  %54 = add nsw i32 %53, 1
  store i32 %54, i32* %1, align 4
  br label %4

55:                                               ; preds = %4
  store i32 0, i32* %1, align 4
  br label %56

56:                                               ; preds = %104, %55
  %57 = load i32, i32* %1, align 4
  %58 = load i32, i32* @len2, align 4
  %59 = icmp slt i32 %57, %58
  br i1 %59, label %60, label %107

60:                                               ; preds = %56
  %61 = load i32, i32* %1, align 4
  %62 = add nsw i32 %61, 1
  store i32 %62, i32* %2, align 4
  br label %63

63:                                               ; preds = %100, %60
  %64 = load i32, i32* %2, align 4
  %65 = load i32, i32* @len2, align 4
  %66 = icmp slt i32 %64, %65
  br i1 %66, label %67, label %103

67:                                               ; preds = %63
  %68 = load i32*, i32** @sz2, align 8
  %69 = load i32, i32* %1, align 4
  %70 = sext i32 %69 to i64
  %71 = getelementptr inbounds i32, i32* %68, i64 %70
  %72 = load i32, i32* %71, align 4
  %73 = load i32*, i32** @sz2, align 8
  %74 = load i32, i32* %2, align 4
  %75 = sext i32 %74 to i64
  %76 = getelementptr inbounds i32, i32* %73, i64 %75
  %77 = load i32, i32* %76, align 4
  %78 = icmp sgt i32 %72, %77
  br i1 %78, label %79, label %99

79:                                               ; preds = %67
  %80 = load i32*, i32** @sz2, align 8
  %81 = load i32, i32* %1, align 4
  %82 = sext i32 %81 to i64
  %83 = getelementptr inbounds i32, i32* %80, i64 %82
  %84 = load i32, i32* %83, align 4
  store i32 %84, i32* %3, align 4
  %85 = load i32*, i32** @sz2, align 8
  %86 = load i32, i32* %2, align 4
  %87 = sext i32 %86 to i64
  %88 = getelementptr inbounds i32, i32* %85, i64 %87
  %89 = load i32, i32* %88, align 4
  %90 = load i32*, i32** @sz2, align 8
  %91 = load i32, i32* %1, align 4
  %92 = sext i32 %91 to i64
  %93 = getelementptr inbounds i32, i32* %90, i64 %92
  store i32 %89, i32* %93, align 4
  %94 = load i32, i32* %3, align 4
  %95 = load i32*, i32** @sz2, align 8
  %96 = load i32, i32* %2, align 4
  %97 = sext i32 %96 to i64
  %98 = getelementptr inbounds i32, i32* %95, i64 %97
  store i32 %94, i32* %98, align 4
  br label %99

99:                                               ; preds = %79, %67
  br label %100

100:                                              ; preds = %99
  %101 = load i32, i32* %2, align 4
  %102 = add nsw i32 %101, 1
  store i32 %102, i32* %2, align 4
  br label %63

103:                                              ; preds = %63
  br label %104

104:                                              ; preds = %103
  %105 = load i32, i32* %1, align 4
  %106 = add nsw i32 %105, 1
  store i32 %106, i32* %1, align 4
  br label %56

107:                                              ; preds = %56
  ret void
}

; Function Attrs: noinline nounwind uwtable
define dso_local void @combine() #0 {
  %1 = alloca i32, align 4
  store i32 0, i32* %1, align 4
  br label %2

2:                                                ; preds = %18, %0
  %3 = load i32, i32* %1, align 4
  %4 = load i32, i32* @len2, align 4
  %5 = icmp slt i32 %3, %4
  br i1 %5, label %6, label %21

6:                                                ; preds = %2
  %7 = load i32*, i32** @sz2, align 8
  %8 = load i32, i32* %1, align 4
  %9 = sext i32 %8 to i64
  %10 = getelementptr inbounds i32, i32* %7, i64 %9
  %11 = load i32, i32* %10, align 4
  %12 = load i32*, i32** @sz1, align 8
  %13 = load i32, i32* @len1, align 4
  %14 = load i32, i32* %1, align 4
  %15 = add nsw i32 %13, %14
  %16 = sext i32 %15 to i64
  %17 = getelementptr inbounds i32, i32* %12, i64 %16
  store i32 %11, i32* %17, align 4
  br label %18

18:                                               ; preds = %6
  %19 = load i32, i32* %1, align 4
  %20 = add nsw i32 %19, 1
  store i32 %20, i32* %1, align 4
  br label %2

21:                                               ; preds = %2
  ret void
}

; Function Attrs: noinline nounwind uwtable
define dso_local void @print() #0 {
  %1 = alloca i32, align 4
  %2 = load i32*, i32** @sz1, align 8
  %3 = getelementptr inbounds i32, i32* %2, i64 0
  %4 = load i32, i32* %3, align 4
  %5 = call i32 (i8*, ...) @printf(i8* getelementptr inbounds ([3 x i8], [3 x i8]* @.str.1, i64 0, i64 0), i32 %4)
  store i32 1, i32* %1, align 4
  br label %6

6:                                                ; preds = %19, %0
  %7 = load i32, i32* %1, align 4
  %8 = load i32, i32* @len1, align 4
  %9 = load i32, i32* @len2, align 4
  %10 = add nsw i32 %8, %9
  %11 = icmp slt i32 %7, %10
  br i1 %11, label %12, label %22

12:                                               ; preds = %6
  %13 = load i32*, i32** @sz1, align 8
  %14 = load i32, i32* %1, align 4
  %15 = sext i32 %14 to i64
  %16 = getelementptr inbounds i32, i32* %13, i64 %15
  %17 = load i32, i32* %16, align 4
  %18 = call i32 (i8*, ...) @printf(i8* getelementptr inbounds ([4 x i8], [4 x i8]* @.str.2, i64 0, i64 0), i32 %17)
  br label %19

19:                                               ; preds = %12
  %20 = load i32, i32* %1, align 4
  %21 = add nsw i32 %20, 1
  store i32 %21, i32* %1, align 4
  br label %6

22:                                               ; preds = %6
  %23 = call i32 (i8*, ...) @printf(i8* getelementptr inbounds ([2 x i8], [2 x i8]* @.str.3, i64 0, i64 0))
  ret void
}

; Function Attrs: noinline nounwind uwtable
define dso_local void @main() #0 {
  call void @read()
  call void @sort()
  call void @combine()
  call void @print()
  ret void
}